; ModuleID = '10/1332.c'
source_filename = "10/1332.c"
target datalayout = "e-m:e-p270:32:32-p271:32:32-p272:64:64-i64:64-f80:128-n8:16:32:64-S128"
target triple = "x86_64-pc-linux-gnu"

@.str = private unnamed_addr constant [3 x i8] c"%d\00", align 1

; Function Attrs: noinline nounwind uwtable
define dso_local i32 @f(i32 %0, i32* %1, i32 %2) #0 {
  %4 = alloca i32, align 4
  %5 = alloca i32, align 4
  %6 = alloca i32*, align 8
  %7 = alloca i32, align 4
  %8 = alloca i32, align 4
  %9 = alloca i32, align 4
  %10 = alloca i32, align 4
  store i32 %0, i32* %5, align 4
  store i32* %1, i32** %6, align 8
  store i32 %2, i32* %7, align 4
  store i32 0, i32* %9, align 4
  %11 = load i32, i32* %5, align 4
  %12 = load i32, i32* %7, align 4
  %13 = sub nsw i32 %12, 1
  %14 = icmp eq i32 %11, %13
  br i1 %14, label %15, label %16

15:                                               ; preds = %3
  store i32 1, i32* %4, align 4
  br label %55

16:                                               ; preds = %3
  %17 = load i32, i32* %7, align 4
  %18 = sub nsw i32 %17, 1
  store i32 %18, i32* %10, align 4
  br label %19

19:                                               ; preds = %49, %16
  %20 = load i32, i32* %10, align 4
  %21 = load i32, i32* %5, align 4
  %22 = icmp sgt i32 %20, %21
  br i1 %22, label %23, label %52

23:                                               ; preds = %19
  %24 = load i32*, i32** %6, align 8
  %25 = load i32, i32* %10, align 4
  %26 = sext i32 %25 to i64
  %27 = getelementptr inbounds i32, i32* %24, i64 %26
  %28 = load i32, i32* %27, align 4
  %29 = load i32*, i32** %6, align 8
  %30 = load i32, i32* %5, align 4
  %31 = sext i32 %30 to i64
  %32 = getelementptr inbounds i32, i32* %29, i64 %31
  %33 = load i32, i32* %32, align 4
  %34 = icmp sle i32 %28, %33
  br i1 %34, label %35, label %48

35:                                               ; preds = %23
  %36 = load i32, i32* %10, align 4
  %37 = load i32*, i32** %6, align 8
  %38 = load i32, i32* %7, align 4
  %39 = call i32 @f(i32 %36, i32* %37, i32 %38)
  %40 = load i32, i32* %9, align 4
  %41 = icmp sgt i32 %39, %40
  br i1 %41, label %42, label %47

42:                                               ; preds = %35
  %43 = load i32, i32* %10, align 4
  %44 = load i32*, i32** %6, align 8
  %45 = load i32, i32* %7, align 4
  %46 = call i32 @f(i32 %43, i32* %44, i32 %45)
  store i32 %46, i32* %9, align 4
  br label %47

47:                                               ; preds = %42, %35
  br label %48

48:                                               ; preds = %47, %23
  br label %49

49:                                               ; preds = %48
  %50 = load i32, i32* %10, align 4
  %51 = add nsw i32 %50, -1
  store i32 %51, i32* %10, align 4
  br label %19

52:                                               ; preds = %19
  %53 = load i32, i32* %9, align 4
  %54 = add nsw i32 %53, 1
  store i32 %54, i32* %4, align 4
  br label %55

55:                                               ; preds = %52, %15
  %56 = load i32, i32* %4, align 4
  ret i32 %56
}

; Function Attrs: noinline nounwind uwtable
define dso_local i32 @main() #0 {
  %1 = alloca i32, align 4
  %2 = alloca i32, align 4
  %3 = alloca i32, align 4
  %4 = alloca [25 x i32], align 16
  %5 = alloca i32, align 4
  %6 = alloca i32, align 4
  %7 = alloca i32, align 4
  store i32 0, i32* %1, align 4
  store i32 1, i32* %6, align 4
  %8 = call i32 (i8*, ...) @__isoc99_scanf(i8* getelementptr inbounds ([3 x i8], [3 x i8]* @.str, i64 0, i64 0), i32* %2)
  store i32 0, i32* %3, align 4
  br label %9

9:                                                ; preds = %19, %0
  %10 = load i32, i32* %3, align 4
  %11 = load i32, i32* %2, align 4
  %12 = sub nsw i32 %11, 1
  %13 = icmp sle i32 %10, %12
  br i1 %13, label %14, label %22

14:                                               ; preds = %9
  %15 = load i32, i32* %3, align 4
  %16 = sext i32 %15 to i64
  %17 = getelementptr inbounds [25 x i32], [25 x i32]* %4, i64 0, i64 %16
  %18 = call i32 (i8*, ...) @__isoc99_scanf(i8* getelementptr inbounds ([3 x i8], [3 x i8]* @.str, i64 0, i64 0), i32* %17)
  br label %19

19:                                               ; preds = %14
  %20 = load i32, i32* %3, align 4
  %21 = add nsw i32 %20, 1
  store i32 %21, i32* %3, align 4
  br label %9

22:                                               ; preds = %9
  store i32 0, i32* %7, align 4
  br label %23

23:                                               ; preds = %41, %22
  %24 = load i32, i32* %7, align 4
  %25 = load i32, i32* %2, align 4
  %26 = sub nsw i32 %25, 1
  %27 = icmp sle i32 %24, %26
  br i1 %27, label %28, label %44

28:                                               ; preds = %23
  %29 = load i32, i32* %7, align 4
  %30 = getelementptr inbounds [25 x i32], [25 x i32]* %4, i64 0, i64 0
  %31 = load i32, i32* %2, align 4
  %32 = call i32 @f(i32 %29, i32* %30, i32 %31)
  %33 = load i32, i32* %6, align 4
  %34 = icmp sgt i32 %32, %33
  br i1 %34, label %35, label %40

35:                                               ; preds = %28
  %36 = load i32, i32* %7, align 4
  %37 = getelementptr inbounds [25 x i32], [25 x i32]* %4, i64 0, i64 0
  %38 = load i32, i32* %2, align 4
  %39 = call i32 @f(i32 %36, i32* %37, i32 %38)
  store i32 %39, i32* %6, align 4
  br label %40

40:                                               ; preds = %35, %28
  br label %41

41:                                               ; preds = %40
  %42 = load i32, i32* %7, align 4
  %43 = add nsw i32 %42, 1
  store i32 %43, i32* %7, align 4
  br label %23

44:                                               ; preds = %23
  %45 = load i32, i32* %6, align 4
  %46 = call i32 (i8*, ...) @printf(i8* getelementptr inbounds ([3 x i8], [3 x i8]* @.str, i64 0, i64 0), i32 %45)
  %47 = load i32, i32* %1, align 4
  ret i32 %47
}

declare dso_local i32 @__isoc99_scanf(i8*, ...) #1

declare dso_local i32 @printf(i8*, ...) #1


!llvm.module.flags = !{!0}
!llvm.ident = !{!1}

!0 = !{i32 1, !"wchar_size", i32 4}
!1 = !{!"clang version 10.0.0-4ubuntu1 "}
