; ModuleID = 'source-C-CXX/9/1332.c'
source_filename = "source-C-CXX/9/1332.c"
target datalayout = "e-m:e-p270:32:32-p271:32:32-p272:64:64-i64:64-f80:128-n8:16:32:64-S128"
target triple = "x86_64-pc-linux-gnu"

@.str = private unnamed_addr constant [3 x i8] c"%d\00", align 1

; Function Attrs: nofree nosync nounwind readonly sspstrong uwtable
define dso_local i32 @f(i32 %0, i32* %1, i32 %2) local_unnamed_addr #0 {
  %4 = add i32 %2, -1
  %5 = icmp eq i32 %4, %0
  br i1 %5, label %31, label %6

6:                                                ; preds = %3
  %7 = icmp sgt i32 %4, %0
  br i1 %7, label %8, label %28

8:                                                ; preds = %6
  %9 = sext i32 %0 to i64
  %10 = getelementptr inbounds i32, i32* %1, i64 %9
  %11 = load i32, i32* %10, align 4, !tbaa !5
  %12 = sext i32 %4 to i64
  br label %13

13:                                               ; preds = %8, %24
  %14 = phi i64 [ %12, %8 ], [ %26, %24 ]
  %15 = phi i32 [ 0, %8 ], [ %25, %24 ]
  %16 = getelementptr inbounds i32, i32* %1, i64 %14
  %17 = load i32, i32* %16, align 4, !tbaa !5
  %18 = icmp sgt i32 %17, %11
  br i1 %18, label %24, label %19

19:                                               ; preds = %13
  %20 = trunc i64 %14 to i32
  %21 = tail call i32 @f(i32 %20, i32* nonnull %1, i32 %2)
  %22 = icmp sgt i32 %21, %15
  %23 = select i1 %22, i32 %21, i32 %15
  br label %24

24:                                               ; preds = %19, %13
  %25 = phi i32 [ %15, %13 ], [ %23, %19 ]
  %26 = add nsw i64 %14, -1
  %27 = icmp sgt i64 %26, %9
  br i1 %27, label %13, label %28, !llvm.loop !9

28:                                               ; preds = %24, %6
  %29 = phi i32 [ 0, %6 ], [ %25, %24 ]
  %30 = add nsw i32 %29, 1
  br label %31

31:                                               ; preds = %3, %28
  %32 = phi i32 [ %30, %28 ], [ 1, %3 ]
  ret i32 %32
}

; Function Attrs: argmemonly mustprogress nofree nosync nounwind willreturn
declare void @llvm.lifetime.start.p0i8(i64 immarg, i8* nocapture) #1

; Function Attrs: argmemonly mustprogress nofree nosync nounwind willreturn
declare void @llvm.lifetime.end.p0i8(i64 immarg, i8* nocapture) #1

; Function Attrs: nofree nounwind sspstrong uwtable
define dso_local i32 @main() local_unnamed_addr #2 {
  %1 = alloca i32, align 4
  %2 = alloca [25 x i32], align 16
  %3 = bitcast i32* %1 to i8*
  call void @llvm.lifetime.start.p0i8(i64 4, i8* nonnull %3) #4
  %4 = bitcast [25 x i32]* %2 to i8*
  call void @llvm.lifetime.start.p0i8(i64 100, i8* nonnull %4) #4
  %5 = call i32 (i8*, ...) @__isoc99_scanf(i8* getelementptr inbounds ([3 x i8], [3 x i8]* @.str, i64 0, i64 0), i32* nonnull %1)
  %6 = load i32, i32* %1, align 4, !tbaa !5
  %7 = icmp sgt i32 %6, 0
  br i1 %7, label %11, label %27

8:                                                ; preds = %11
  %9 = getelementptr inbounds [25 x i32], [25 x i32]* %2, i64 0, i64 0
  %10 = icmp sgt i32 %16, 0
  br i1 %10, label %19, label %27

11:                                               ; preds = %0, %11
  %12 = phi i64 [ %15, %11 ], [ 0, %0 ]
  %13 = getelementptr inbounds [25 x i32], [25 x i32]* %2, i64 0, i64 %12
  %14 = call i32 (i8*, ...) @__isoc99_scanf(i8* getelementptr inbounds ([3 x i8], [3 x i8]* @.str, i64 0, i64 0), i32* nonnull %13)
  %15 = add nuw nsw i64 %12, 1
  %16 = load i32, i32* %1, align 4, !tbaa !5
  %17 = sext i32 %16 to i64
  %18 = icmp slt i64 %15, %17
  br i1 %18, label %11, label %8, !llvm.loop !11

19:                                               ; preds = %8, %19
  %20 = phi i32 [ %25, %19 ], [ 0, %8 ]
  %21 = phi i32 [ %24, %19 ], [ 1, %8 ]
  %22 = call i32 @f(i32 %20, i32* nonnull %9, i32 %16)
  %23 = icmp sgt i32 %22, %21
  %24 = select i1 %23, i32 %22, i32 %21
  %25 = add nuw nsw i32 %20, 1
  %26 = icmp eq i32 %25, %16
  br i1 %26, label %27, label %19, !llvm.loop !12

27:                                               ; preds = %19, %0, %8
  %28 = phi i32 [ 1, %8 ], [ 1, %0 ], [ %24, %19 ]
  %29 = call i32 (i8*, ...) @printf(i8* nonnull dereferenceable(1) getelementptr inbounds ([3 x i8], [3 x i8]* @.str, i64 0, i64 0), i32 %28)
  call void @llvm.lifetime.end.p0i8(i64 100, i8* nonnull %4) #4
  call void @llvm.lifetime.end.p0i8(i64 4, i8* nonnull %3) #4
  ret i32 0
}

; Function Attrs: nofree nounwind
declare noundef i32 @__isoc99_scanf(i8* nocapture noundef readonly, ...) local_unnamed_addr #3

; Function Attrs: nofree nounwind
declare noundef i32 @printf(i8* nocapture noundef readonly, ...) local_unnamed_addr #3


!llvm.module.flags = !{!0, !1, !2, !3}
!llvm.ident = !{!4}

!0 = !{i32 1, !"wchar_size", i32 4}
!1 = !{i32 7, !"PIC Level", i32 2}
!2 = !{i32 7, !"PIE Level", i32 2}
!3 = !{i32 7, !"uwtable", i32 1}
!4 = !{!"clang version 13.0.0"}
!5 = !{!6, !6, i64 0}
!6 = !{!"int", !7, i64 0}
!7 = !{!"omnipotent char", !8, i64 0}
!8 = !{!"Simple C/C++ TBAA"}
!9 = distinct !{!9, !10}
!10 = !{!"llvm.loop.mustprogress"}
!11 = distinct !{!11, !10}
!12 = distinct !{!12, !10}
